target datalayout = "e-m:e-p270:32:32-p271:32:32-p272:64:64-i64:64-i128:128-f80:128-n8:16:32:64-S128"
target triple = "x86_64-pc-linux-gnu"

%"class.llvm::FunctionCallee" = type { ptr, ptr }
%"class.llvm::Twine" = type <{ %"union.llvm::Twine::Child", %"union.llvm::Twine::Child", i8, i8, [6 x i8] }>
%"union.llvm::Twine::Child" = type { %struct.anon.879 }
%struct.anon.879 = type { ptr, i64 }
%"class.clang::CodeGen::EHScopeStack::Cleanup" = type { ptr }
%"class.clang::CodeGen::EHScopeStack::Cleanup::Flags" = type { i32 }
%"struct.(anonymous namespace)::CallObjCEndCatch" = type { %"class.clang::CodeGen::EHScopeStack::Cleanup", i8, %"class.llvm::FunctionCallee" }

@.str.4 = private unnamed_addr constant [1 x i8] zeroinitializer, align 1

; Function Attrs: mustprogress nounwind uwtable
define linkonce_odr hidden void @_ZN4llvm5TwineC2EPKc(ptr noundef nonnull align 8 dereferenceable(34) %0, ptr noundef %1) unnamed_addr #0 comdat align 2 {
  %3 = alloca ptr, align 8
  %4 = alloca ptr, align 8
  store ptr %0, ptr %3, align 8
  store ptr %1, ptr %4, align 8
  %5 = load ptr, ptr %3, align 8
  %6 = getelementptr inbounds nuw %"class.llvm::Twine", ptr %5, i32 0, i32 2
  store i8 1, ptr %6, align 8
  %7 = getelementptr inbounds nuw %"class.llvm::Twine", ptr %5, i32 0, i32 3
  store i8 1, ptr %7, align 1
  %8 = load ptr, ptr %4, align 8
  %9 = getelementptr inbounds i8, ptr %8, i64 0
  %10 = load i8, ptr %9, align 1
  %11 = sext i8 %10 to i32
  %12 = icmp ne i32 %11, 0
  br i1 %12, label %13, label %17

13:                                               ; preds = %2
  %14 = load ptr, ptr %4, align 8
  %15 = getelementptr inbounds nuw %"class.llvm::Twine", ptr %5, i32 0, i32 0
  store ptr %14, ptr %15, align 8
  %16 = getelementptr inbounds nuw %"class.llvm::Twine", ptr %5, i32 0, i32 2
  store i8 3, ptr %16, align 8
  br label %19

17:                                               ; preds = %2
  %18 = getelementptr inbounds nuw %"class.llvm::Twine", ptr %5, i32 0, i32 2
  store i8 1, ptr %18, align 8
  br label %19

19:                                               ; preds = %17, %13
  ret void
}

; Function Attrs: mustprogress nounwind uwtable
define internal void @_ZN12_GLOBAL__N_116CallObjCEndCatch4EmitERN5clang7CodeGen15CodeGenFunctionENS2_12EHScopeStack7Cleanup5FlagsE(ptr noundef nonnull align 8 dereferenceable(32) %0, ptr noundef nonnull align 8 dereferenceable(6488) %1, i32 %2) unnamed_addr #0 align 2 {
  %4 = alloca %"class.clang::CodeGen::EHScopeStack::Cleanup::Flags", align 4
  %5 = alloca ptr, align 8
  %6 = alloca ptr, align 8
  %7 = alloca %"class.llvm::FunctionCallee", align 8
  %8 = alloca %"class.llvm::Twine", align 8
  %9 = alloca %"class.llvm::FunctionCallee", align 8
  %10 = alloca %"class.llvm::Twine", align 8
  %11 = getelementptr inbounds nuw %"class.clang::CodeGen::EHScopeStack::Cleanup::Flags", ptr %4, i32 0, i32 0
  store i32 %2, ptr %11, align 4
  store ptr %0, ptr %5, align 8
  store ptr %1, ptr %6, align 8
  %12 = load ptr, ptr %5, align 8
  %13 = getelementptr inbounds nuw %"struct.(anonymous namespace)::CallObjCEndCatch", ptr %12, i32 0, i32 1
  %14 = load i8, ptr %13, align 8
  %15 = trunc i8 %14 to i1
  br i1 %15, label %16, label %24

16:                                               ; preds = %3
  %17 = load ptr, ptr %6, align 8
  %18 = getelementptr inbounds nuw %"struct.(anonymous namespace)::CallObjCEndCatch", ptr %12, i32 0, i32 2
  call void @llvm.memcpy.p0.p0.i64(ptr align 8 %7, ptr align 8 %18, i64 16, i1 false)
  call void @_ZN4llvm5TwineC2EPKc(ptr noundef nonnull align 8 dereferenceable(34) %8, ptr noundef @.str.4)
  %19 = getelementptr inbounds nuw { ptr, ptr }, ptr %7, i32 0, i32 0
  %20 = load ptr, ptr %19, align 8
  %21 = getelementptr inbounds nuw { ptr, ptr }, ptr %7, i32 0, i32 1
  %22 = load ptr, ptr %21, align 8
  %23 = call noundef ptr @_ZN5clang7CodeGen15CodeGenFunction23EmitRuntimeCallOrInvokeEN4llvm14FunctionCalleeERKNS2_5TwineE(ptr noundef nonnull align 8 dereferenceable(6488) %17, ptr %20, ptr %22, ptr noundef nonnull align 8 dereferenceable(34) %8)
  br label %32

24:                                               ; preds = %3
  %25 = load ptr, ptr %6, align 8
  %26 = getelementptr inbounds nuw %"struct.(anonymous namespace)::CallObjCEndCatch", ptr %12, i32 0, i32 2
  call void @llvm.memcpy.p0.p0.i64(ptr align 8 %9, ptr align 8 %26, i64 16, i1 false)
  call void @_ZN4llvm5TwineC2EPKc(ptr noundef nonnull align 8 dereferenceable(34) %10, ptr noundef @.str.4)
  %27 = getelementptr inbounds nuw { ptr, ptr }, ptr %9, i32 0, i32 0
  %28 = load ptr, ptr %27, align 8
  %29 = getelementptr inbounds nuw { ptr, ptr }, ptr %9, i32 0, i32 1
  %30 = load ptr, ptr %29, align 8
  %31 = call noundef ptr @_ZN5clang7CodeGen15CodeGenFunction23EmitNounwindRuntimeCallEN4llvm14FunctionCalleeERKNS2_5TwineE(ptr noundef nonnull align 8 dereferenceable(6488) %25, ptr %28, ptr %30, ptr noundef nonnull align 8 dereferenceable(34) %10)
  br label %32

32:                                               ; preds = %24, %16
  ret void
}