; Function Attrs: mustprogress nounwind uwtable
define internal void @_ZN12_GLOBAL__N_116CallObjCEndCatch4EmitERN5clang7CodeGen15CodeGenFunctionENS2_12EHScopeStack7Cleanup5FlagsE(ptr nocapture noundef nonnull readonly align 8 dereferenceable(32) %0, ptr noundef nonnull align 8 dereferenceable(6488) %1, i32 %2) unnamed_addr #0 align 2 {
  %4 = alloca %"class.llvm::Twine", align 8
  %5 = alloca %"class.llvm::Twine", align 8
  %6 = getelementptr inbounds nuw i8, ptr %0, i64 8
  %7 = load i8, ptr %6, align 8
  %8 = trunc i8 %7 to i1
  %9 = getelementptr inbounds nuw i8, ptr %0, i64 16
  %.sroa.01.0.copyload = load ptr, ptr %9, align 8
  %.sroa.22.0..sroa_idx = getelementptr inbounds i8, ptr %0, i64 24
  %.sroa.22.0.copyload = load ptr, ptr %.sroa.22.0..sroa_idx, align 8
  br i1 %8, label %10, label %13

10:                                               ; preds = %3
  %11 = getelementptr inbounds nuw i8, ptr %4, i64 32
  store i16 257, ptr %11, align 8
  %12 = call noundef ptr @_ZN5clang7CodeGen15CodeGenFunction23EmitRuntimeCallOrInvokeEN4llvm14FunctionCalleeERKNS2_5TwineE(ptr noundef nonnull align 8 dereferenceable(6488) %1, ptr %.sroa.01.0.copyload, ptr %.sroa.22.0.copyload, ptr noundef nonnull align 8 dereferenceable(34) %4) #13
  br label %16

13:                                               ; preds = %3
  %14 = getelementptr inbounds nuw i8, ptr %5, i64 32
  store i16 257, ptr %14, align 8
  %15 = call noundef ptr @_ZN5clang7CodeGen15CodeGenFunction23EmitNounwindRuntimeCallEN4llvm14FunctionCalleeERKNS2_5TwineE(ptr noundef nonnull align 8 dereferenceable(6488) %1, ptr %.sroa.01.0.copyload, ptr %.sroa.22.0.copyload, ptr noundef nonnull align 8 dereferenceable(34) %5) #13
  br label %16

16:                                               ; preds = %13, %10
  ret void
}